; Function Attrs: mustprogress nounwind uwtable
define internal fastcc noundef i32 @_ZN4llvm11ImutAVLTreeINS_17ImutContainerInfoIN12_GLOBAL__N_116EquivalenceClassEEEE13computeDigestEv(ptr nocapture noundef nonnull align 8 dereferenceable(72) %0) unnamed_addr #1 align 2 {
  %2 = alloca %"class.llvm::FoldingSetNodeID", align 8
  %3 = getelementptr inbounds i8, ptr %0, i64 40
  %.val4 = load i32, ptr %3, align 8
  %4 = and i32 %.val4, 536870912
  %.not = icmp eq i32 %4, 0
  br i1 %.not, label %8, label %5

5:                                                ; preds = %1
  %6 = getelementptr inbounds nuw i8, ptr %0, i64 64
  %7 = load i32, ptr %6, align 8
  br label %32

8:                                                ; preds = %1
  %9 = getelementptr inbounds i8, ptr %0, i64 8
  %.val = load ptr, ptr %9, align 8
  %10 = getelementptr inbounds i8, ptr %0, i64 16
  %.val3 = load ptr, ptr %10, align 8
  call void @llvm.lifetime.start.p0(i64 144, ptr nonnull %2)
  %.not.i = icmp eq ptr %.val, null
  br i1 %.not.i, label %13, label %11

11:                                               ; preds = %8
  %12 = tail call fastcc noundef i32 @_ZN4llvm11ImutAVLTreeINS_17ImutContainerInfoIN12_GLOBAL__N_116EquivalenceClassEEEE13computeDigestEv(ptr noundef nonnull align 8 dereferenceable(72) %.val)
  br label %13

13:                                               ; preds = %11, %8
  %.0.i = phi i32 [ %12, %11 ], [ 0, %8 ]
  %14 = getelementptr inbounds i8, ptr %2, i64 16
  call void @_ZN4llvm15SmallVectorBaseIjEC2EPvm(ptr noundef nonnull align 8 dereferenceable(16) %2, ptr noundef nonnull %14, i64 noundef 32) #22
  %15 = getelementptr inbounds i8, ptr %0, i64 56
  %.val.i = load i64, ptr %15, align 8
  call void @_ZN4llvm16FoldingSetNodeID10AddIntegerEy(ptr noundef nonnull align 8 dereferenceable(144) %2, i64 noundef %.val.i)
  %16 = load ptr, ptr %2, align 8
  %17 = call noundef i64 @_ZNK4llvm15SmallVectorBaseIjE4sizeEv(ptr noundef nonnull align 8 dereferenceable(16) %2) #22
  %18 = getelementptr inbounds i32, ptr %16, i64 %17
  %19 = call i64 @_ZN4llvm7hashing6detail23hash_combine_range_implIKjEENSt9enable_ifIXsr16is_hashable_dataIT_EE5valueENS_9hash_codeEE4typeEPS5_S9_(ptr noundef %16, ptr noundef %18)
  %20 = trunc i64 %19 to i32
  %21 = add i32 %.0.i, %20
  %.not10.i = icmp eq ptr %.val3, null
  br i1 %.not10.i, label %_ZN4llvm11ImutAVLTreeINS_17ImutContainerInfoIN12_GLOBAL__N_116EquivalenceClassEEEE13computeDigestEPS5_S6_RKS3_.exit, label %22

22:                                               ; preds = %13
  %23 = call fastcc noundef i32 @_ZN4llvm11ImutAVLTreeINS_17ImutContainerInfoIN12_GLOBAL__N_116EquivalenceClassEEEE13computeDigestEv(ptr noundef nonnull align 8 dereferenceable(72) %.val3)
  %24 = add i32 %23, %21
  br label %_ZN4llvm11ImutAVLTreeINS_17ImutContainerInfoIN12_GLOBAL__N_116EquivalenceClassEEEE13computeDigestEPS5_S6_RKS3_.exit

_ZN4llvm11ImutAVLTreeINS_17ImutContainerInfoIN12_GLOBAL__N_116EquivalenceClassEEEE13computeDigestEPS5_S6_RKS3_.exit: ; preds = %13, %22
  %.1.i = phi i32 [ %24, %22 ], [ %21, %13 ]
  %25 = call noundef i64 @_ZNK4llvm15SmallVectorBaseIjE4sizeEv(ptr noundef nonnull align 8 dereferenceable(16) %2) #22
  %26 = load ptr, ptr %2, align 8
  %27 = icmp eq ptr %26, %14
  br i1 %27, label %_ZN4llvm16FoldingSetNodeIDD2Ev.exit, label %28

28:                                               ; preds = %_ZN4llvm11ImutAVLTreeINS_17ImutContainerInfoIN12_GLOBAL__N_116EquivalenceClassEEEE13computeDigestEPS5_S6_RKS3_.exit
  call void @free(ptr noundef %26) #22
  br label %_ZN4llvm16FoldingSetNodeIDD2Ev.exit

_ZN4llvm16FoldingSetNodeIDD2Ev.exit:              ; preds = %_ZN4llvm11ImutAVLTreeINS_17ImutContainerInfoIN12_GLOBAL__N_116EquivalenceClassEEEE13computeDigestEPS5_S6_RKS3_.exit, %28
  call void @llvm.lifetime.end.p0(i64 144, ptr nonnull %2)
  %29 = getelementptr inbounds nuw i8, ptr %0, i64 64
  store i32 %.1.i, ptr %29, align 8
  %30 = load i32, ptr %3, align 8
  %31 = or i32 %30, 536870912
  store i32 %31, ptr %3, align 8
  br label %32

32:                                               ; preds = %_ZN4llvm16FoldingSetNodeIDD2Ev.exit, %5
  %.0 = phi i32 [ %7, %5 ], [ %.1.i, %_ZN4llvm16FoldingSetNodeIDD2Ev.exit ]
  ret i32 %.0
}